; Function Attrs: mustprogress nofree norecurse nosync nounwind willreturn memory(argmem: readwrite) uwtable
define hidden void @_ZN10polynomial7manager7inc_refEPNS_8monomialE(ptr nocapture noundef nonnull readnone align 8 dereferenceable(8) %this, ptr noundef %m) local_unnamed_addr #6 align 2 {
entry:
  %tobool.not = icmp eq ptr %m, null
  br i1 %tobool.not, label %if.end, label %if.then

if.then:                                          ; preds = %entry
  %0 = load i32, ptr %m, align 4
  %inc.i = add i32 %0, 1
  store i32 %inc.i, ptr %m, align 4
  br label %if.end

if.end:                                           ; preds = %if.then, %entry
  ret void
}